; Function Attrs: mustprogress uwtable
define void @_ZN3nix18staticOutputHashesB5cxx11ERNS_5StoreERKNS_10DerivationE(ptr dead_on_unwind noalias writable sret(%"class.std::map.330") align 8 %0, ptr noundef nonnull align 8 dereferenceable(264) %1, ptr noundef nonnull align 8 dereferenceable(320) %2) local_unnamed_addr #4 personality ptr @__gxx_personality_v0 {
  %4 = alloca %"struct.nix::DrvHash", align 8
  call void @_ZN3nix20hashDerivationModuloERNS_5StoreERKNS_10DerivationEb(ptr dead_on_unwind nonnull writable sret(%"struct.nix::DrvHash") align 8 %4, ptr noundef nonnull align 8 dereferenceable(264) %1, ptr noundef nonnull align 8 dereferenceable(320) %2, i1 noundef zeroext true)
  %5 = getelementptr inbounds i8, ptr %0, i64 8
  %6 = getelementptr inbounds i8, ptr %4, i64 16
  %7 = load ptr, ptr %6, align 8
  %.not.i.i.i.i = icmp eq ptr %7, null
  br i1 %.not.i.i.i.i, label %20, label %8

8:                                                ; preds = %3
  %9 = getelementptr inbounds i8, ptr %4, i64 8
  %10 = load i32, ptr %9, align 8
  store i32 %10, ptr %5, align 8
  %11 = getelementptr inbounds i8, ptr %0, i64 16
  store ptr %7, ptr %11, align 8
  %12 = getelementptr inbounds i8, ptr %4, i64 24
  %13 = getelementptr inbounds i8, ptr %0, i64 24
  %14 = getelementptr inbounds i8, ptr %4, i64 32
  %15 = load <2 x ptr>, ptr %12, align 8
  store <2 x ptr> %15, ptr %13, align 8
  %16 = getelementptr inbounds i8, ptr %7, i64 8
  store ptr %5, ptr %16, align 8
  %17 = getelementptr inbounds i8, ptr %4, i64 40
  %18 = load i64, ptr %17, align 8
  %19 = getelementptr inbounds i8, ptr %0, i64 40
  store i64 %18, ptr %19, align 8
  store ptr null, ptr %6, align 8
  store ptr %9, ptr %12, align 8
  store ptr %9, ptr %14, align 8
  br label %_ZNSt3mapINSt7__cxx1112basic_stringIcSt11char_traitsIcESaIcEEEN3nix4HashESt4lessIS5_ESaISt4pairIKS5_S7_EEEC2EOSE_.exit

20:                                               ; preds = %3
  store i32 0, ptr %5, align 8
  %21 = getelementptr inbounds i8, ptr %0, i64 16
  store ptr null, ptr %21, align 8
  %22 = getelementptr inbounds i8, ptr %0, i64 24
  store ptr %5, ptr %22, align 8
  %23 = getelementptr inbounds i8, ptr %0, i64 32
  store ptr %5, ptr %23, align 8
  %24 = getelementptr inbounds i8, ptr %0, i64 40
  br label %_ZNSt3mapINSt7__cxx1112basic_stringIcSt11char_traitsIcESaIcEEEN3nix4HashESt4lessIS5_ESaISt4pairIKS5_S7_EEEC2EOSE_.exit

_ZNSt3mapINSt7__cxx1112basic_stringIcSt11char_traitsIcESaIcEEEN3nix4HashESt4lessIS5_ESaISt4pairIKS5_S7_EEEC2EOSE_.exit: ; preds = %8, %20
  %.sink.i.i.i.i = phi ptr [ %24, %20 ], [ %17, %8 ]
  store i64 0, ptr %.sink.i.i.i.i, align 8
  invoke void @_ZNSt8_Rb_treeINSt7__cxx1112basic_stringIcSt11char_traitsIcESaIcEEESt4pairIKS5_N3nix4HashEESt10_Select1stISA_ESt4lessIS5_ESaISA_EE8_M_eraseEPSt13_Rb_tree_nodeISA_E(ptr noundef nonnull align 8 dereferenceable(48) %4, ptr noundef null)
          to label %_ZN3nix7DrvHashD2Ev.exit unwind label %25

25:                                               ; preds = %_ZNSt3mapINSt7__cxx1112basic_stringIcSt11char_traitsIcESaIcEEEN3nix4HashESt4lessIS5_ESaISt4pairIKS5_S7_EEEC2EOSE_.exit
  %26 = landingpad { ptr, i32 }
          catch ptr null
  %27 = extractvalue { ptr, i32 } %26, 0
  call void @__clang_call_terminate(ptr %27) #28
  unreachable

_ZN3nix7DrvHashD2Ev.exit:                         ; preds = %_ZNSt3mapINSt7__cxx1112basic_stringIcSt11char_traitsIcESaIcEEEN3nix4HashESt4lessIS5_ESaISt4pairIKS5_S7_EEEC2EOSE_.exit
  ret void
}